; Function Attrs: mustprogress nofree norecurse nosync nounwind willreturn memory(read, inaccessiblemem: none) uwtable
define dso_local noundef zeroext i1 @_ZN4llvm10AArch64_MC13hasShiftedRegERKNS_6MCInstE(ptr noundef nonnull readonly align 8 captures(none) dereferenceable(128) %0) local_unnamed_addr #0 {
  %2 = load i32, ptr %0, align 8
  switch i32 %2, label %9 [
    i32 1463, label %3
    i32 1466, label %3
    i32 1448, label %3
    i32 1451, label %3
    i32 6859, label %3
    i32 6862, label %3
    i32 6852, label %3
    i32 6855, label %3
    i32 1551, label %3
    i32 1553, label %3
    i32 1542, label %3
    i32 1544, label %3
    i32 1751, label %3
    i32 1752, label %3
    i32 1748, label %3
    i32 1749, label %3
    i32 2303, label %3
    i32 2304, label %3
    i32 2325, label %3
    i32 2327, label %3
    i32 4864, label %3
    i32 4865, label %3
    i32 4875, label %3
    i32 4877, label %3
  ]

3:                                                ; preds = %1, %1, %1, %1, %1, %1, %1, %1, %1, %1, %1, %1, %1, %1, %1, %1, %1, %1, %1, %1, %1, %1, %1, %1
  %4 = getelementptr inbounds nuw i8, ptr %0, i64 16
  %5 = load ptr, ptr %4, align 8
  %6 = getelementptr inbounds nuw i8, ptr %5, i64 56
  %7 = load i64, ptr %6, align 8
  %8 = icmp ne i64 %7, 0
  br label %9

9:                                                ; preds = %1, %3
  %.0 = phi i1 [ %8, %3 ], [ false, %1 ]
  ret i1 %.0
}